; Function Attrs: mustprogress nofree nounwind uwtable
define noundef i32 @_Z12pr_title_nxnP8_IO_FILEiPKcii(ptr nocapture noundef %0, i32 noundef %1, ptr noundef %2, i32 noundef %3, i32 noundef %4) local_unnamed_addr #0 {
  %6 = icmp sgt i32 %1, 0
  br i1 %6, label %.lr.ph.i, label %_Z9pr_indentP8_IO_FILEi.exit

.lr.ph.i:                                         ; preds = %5, %.lr.ph.i
  %.05.i = phi i32 [ %7, %.lr.ph.i ], [ 0, %5 ]
  %fputc.i = tail call i32 @fputc(i32 32, ptr %0)
  %7 = add nuw nsw i32 %.05.i, 1
  %exitcond.not.i = icmp eq i32 %7, %1
  br i1 %exitcond.not.i, label %_Z9pr_indentP8_IO_FILEi.exit, label %.lr.ph.i, !llvm.loop !5

_Z9pr_indentP8_IO_FILEi.exit:                     ; preds = %.lr.ph.i, %5
  %8 = tail call i32 (ptr, ptr, ...) @fprintf(ptr noundef %0, ptr noundef nonnull @.str.4, ptr noundef %2, i32 noundef %3, i32 noundef %4) #6
  %9 = add nsw i32 %1, 3
  ret i32 %9
}